target datalayout = "e-m:e-p270:32:32-p271:32:32-p272:64:64-i64:64-i128:128-f80:128-n8:16:32:64-S128"
target triple = "x86_64-pc-linux-gnu"

%struct.nsis_z_stream_s = type { ptr, i32, i64, ptr, i32, %struct.inflate_blocks_state }
%struct.inflate_blocks_state = type { %struct.z_stuff, i32, %union.anon.0, i32, i32, i64, [1440 x %struct.inflate_huft_s], [32768 x i8], ptr, ptr, ptr, i64 }
%struct.z_stuff = type { i8, [544 x %struct.inflate_huft_s], i32, i32, ptr, ptr, [288 x i32], [288 x i32] }
%struct.inflate_huft_s = type { %union.anon, i16 }
%union.anon = type { %struct.anon }
%struct.anon = type { i8, i8 }
%union.anon.0 = type { %struct.anon.1 }
%struct.anon.1 = type { i32, i32, [320 x i32], i32, ptr }

; Function Attrs: nounwind uwtable
define internal void @inflate_flush(ptr noundef %0) #0 {
  %2 = alloca ptr, align 8
  %3 = alloca ptr, align 8
  %4 = alloca i32, align 4
  %5 = alloca ptr, align 8
  store ptr %0, ptr %2, align 8
  %6 = load ptr, ptr %2, align 8
  %7 = getelementptr inbounds %struct.nsis_z_stream_s, ptr %6, i32 0, i32 5
  store ptr %7, ptr %3, align 8
  %8 = load ptr, ptr %3, align 8
  %9 = getelementptr inbounds %struct.inflate_blocks_state, ptr %8, i32 0, i32 9
  %10 = load ptr, ptr %9, align 8
  store ptr %10, ptr %5, align 8
  br label %11

11:                                               ; preds = %88, %1
  %12 = load ptr, ptr %5, align 8
  %13 = load ptr, ptr %3, align 8
  %14 = getelementptr inbounds %struct.inflate_blocks_state, ptr %13, i32 0, i32 10
  %15 = load ptr, ptr %14, align 8
  %16 = icmp ule ptr %12, %15
  br i1 %16, label %17, label %21

17:                                               ; preds = %11
  %18 = load ptr, ptr %3, align 8
  %19 = getelementptr inbounds %struct.inflate_blocks_state, ptr %18, i32 0, i32 10
  %20 = load ptr, ptr %19, align 8
  br label %25

21:                                               ; preds = %11
  %22 = load ptr, ptr %3, align 8
  %23 = getelementptr inbounds %struct.inflate_blocks_state, ptr %22, i32 0, i32 8
  %24 = load ptr, ptr %23, align 8
  br label %25

25:                                               ; preds = %21, %17
  %26 = phi ptr [ %20, %17 ], [ %24, %21 ]
  %27 = load ptr, ptr %5, align 8
  %28 = ptrtoint ptr %26 to i64
  %29 = ptrtoint ptr %27 to i64
  %30 = sub i64 %28, %29
  %31 = trunc i64 %30 to i32
  store i32 %31, ptr %4, align 4
  %32 = load i32, ptr %4, align 4
  %33 = load ptr, ptr %2, align 8
  %34 = getelementptr inbounds %struct.nsis_z_stream_s, ptr %33, i32 0, i32 4
  %35 = load i32, ptr %34, align 8
  %36 = icmp ult i32 %32, %35
  br i1 %36, label %37, label %39

37:                                               ; preds = %25
  %38 = load i32, ptr %4, align 4
  br label %43

39:                                               ; preds = %25
  %40 = load ptr, ptr %2, align 8
  %41 = getelementptr inbounds %struct.nsis_z_stream_s, ptr %40, i32 0, i32 4
  %42 = load i32, ptr %41, align 8
  br label %43

43:                                               ; preds = %39, %37
  %44 = phi i32 [ %38, %37 ], [ %42, %39 ]
  store i32 %44, ptr %4, align 4
  %45 = load i32, ptr %4, align 4
  %46 = load ptr, ptr %2, align 8
  %47 = getelementptr inbounds %struct.nsis_z_stream_s, ptr %46, i32 0, i32 4
  %48 = load i32, ptr %47, align 8
  %49 = sub i32 %48, %45
  store i32 %49, ptr %47, align 8
  %50 = load ptr, ptr %2, align 8
  %51 = getelementptr inbounds %struct.nsis_z_stream_s, ptr %50, i32 0, i32 3
  %52 = load ptr, ptr %51, align 8
  %53 = load ptr, ptr %5, align 8
  %54 = load i32, ptr %4, align 4
  %55 = zext i32 %54 to i64
  call void @llvm.memcpy.p0.p0.i64(ptr align 1 %52, ptr align 1 %53, i64 %55, i1 false)
  %56 = load i32, ptr %4, align 4
  %57 = load ptr, ptr %2, align 8
  %58 = getelementptr inbounds %struct.nsis_z_stream_s, ptr %57, i32 0, i32 3
  %59 = load ptr, ptr %58, align 8
  %60 = zext i32 %56 to i64
  %61 = getelementptr inbounds i8, ptr %59, i64 %60
  store ptr %61, ptr %58, align 8
  %62 = load i32, ptr %4, align 4
  %63 = load ptr, ptr %5, align 8
  %64 = zext i32 %62 to i64
  %65 = getelementptr inbounds i8, ptr %63, i64 %64
  store ptr %65, ptr %5, align 8
  %66 = load ptr, ptr %5, align 8
  %67 = load ptr, ptr %3, align 8
  %68 = getelementptr inbounds %struct.inflate_blocks_state, ptr %67, i32 0, i32 8
  %69 = load ptr, ptr %68, align 8
  %70 = icmp eq ptr %66, %69
  br i1 %70, label %71, label %89

71:                                               ; preds = %43
  %72 = load ptr, ptr %3, align 8
  %73 = getelementptr inbounds %struct.inflate_blocks_state, ptr %72, i32 0, i32 7
  %74 = getelementptr inbounds [32768 x i8], ptr %73, i64 0, i64 0
  store ptr %74, ptr %5, align 8
  %75 = load ptr, ptr %3, align 8
  %76 = getelementptr inbounds %struct.inflate_blocks_state, ptr %75, i32 0, i32 10
  %77 = load ptr, ptr %76, align 8
  %78 = load ptr, ptr %3, align 8
  %79 = getelementptr inbounds %struct.inflate_blocks_state, ptr %78, i32 0, i32 8
  %80 = load ptr, ptr %79, align 8
  %81 = icmp eq ptr %77, %80
  br i1 %81, label %82, label %88

82:                                               ; preds = %71
  %83 = load ptr, ptr %3, align 8
  %84 = getelementptr inbounds %struct.inflate_blocks_state, ptr %83, i32 0, i32 7
  %85 = getelementptr inbounds [32768 x i8], ptr %84, i64 0, i64 0
  %86 = load ptr, ptr %3, align 8
  %87 = getelementptr inbounds %struct.inflate_blocks_state, ptr %86, i32 0, i32 10
  store ptr %85, ptr %87, align 8
  br label %88

88:                                               ; preds = %82, %71
  br label %11

89:                                               ; preds = %43
  %90 = load ptr, ptr %5, align 8
  %91 = load ptr, ptr %3, align 8
  %92 = getelementptr inbounds %struct.inflate_blocks_state, ptr %91, i32 0, i32 9
  store ptr %90, ptr %92, align 8
  ret void
}