; Function Attrs: nofree norecurse nosync nounwind memory(readwrite, inaccessiblemem: none) uwtable
define internal fastcc void @inflate_flush(ptr noundef %0) unnamed_addr #0 {
  %2 = getelementptr inbounds nuw i8, ptr %0, i64 44416
  %3 = load ptr, ptr %2, align 8
  %4 = getelementptr inbounds nuw i8, ptr %0, i64 44424
  %5 = getelementptr inbounds nuw i8, ptr %0, i64 32
  %6 = getelementptr inbounds nuw i8, ptr %0, i64 24
  %7 = getelementptr inbounds nuw i8, ptr %0, i64 44408
  %8 = getelementptr inbounds nuw i8, ptr %0, i64 11640
  %.pre = load ptr, ptr %4, align 8
  br label %9

9:                                                ; preds = %.backedge, %1
  %10 = phi ptr [ %.pre, %1 ], [ %.be, %.backedge ]
  %.0 = phi ptr [ %3, %1 ], [ %8, %.backedge ]
  %.not = icmp ugt ptr %.0, %10
  br i1 %.not, label %11, label %13

11:                                               ; preds = %9
  %12 = load ptr, ptr %7, align 8
  br label %13

13:                                               ; preds = %9, %11
  %14 = phi ptr [ %12, %11 ], [ %10, %9 ]
  %15 = ptrtoint ptr %14 to i64
  %16 = ptrtoint ptr %.0 to i64
  %17 = sub i64 %15, %16
  %18 = trunc i64 %17 to i32
  %19 = load i32, ptr %5, align 8
  %. = tail call i32 @llvm.umin.i32(i32 %19, i32 %18)
  %20 = sub i32 %19, %.
  store i32 %20, ptr %5, align 8
  %21 = load ptr, ptr %6, align 8
  %22 = zext i32 %. to i64
  tail call void @llvm.memcpy.p0.p0.i64(ptr align 1 %21, ptr align 1 %.0, i64 %22, i1 false)
  %23 = load ptr, ptr %6, align 8
  %24 = getelementptr inbounds nuw i8, ptr %23, i64 %22
  store ptr %24, ptr %6, align 8
  %25 = getelementptr inbounds nuw i8, ptr %.0, i64 %22
  %26 = load ptr, ptr %7, align 8
  %27 = icmp eq ptr %25, %26
  br i1 %27, label %28, label %32

28:                                               ; preds = %13
  %29 = load ptr, ptr %4, align 8
  %30 = icmp eq ptr %29, %25
  br i1 %30, label %31, label %.backedge

31:                                               ; preds = %28
  store ptr %8, ptr %4, align 8
  br label %.backedge

.backedge:                                        ; preds = %31, %28
  %.be = phi ptr [ %8, %31 ], [ %29, %28 ]
  br label %9

32:                                               ; preds = %13
  store ptr %25, ptr %2, align 8
  ret void
}